target datalayout = "e-m:e-p270:32:32-p271:32:32-p272:64:64-i64:64-i128:128-f80:128-n8:16:32:64-S128"
target triple = "x86_64-pc-linux-gnu"

%struct._generic_SUNLinearSolver_Ops = type { ptr, ptr, ptr, ptr, ptr, ptr, ptr, ptr, ptr, ptr, ptr, ptr, ptr, ptr, ptr }
%struct._generic_SUNLinearSolver = type { ptr, ptr, ptr }

; Function Attrs: nounwind uwtable
define i32 @SUNLinSolFree(ptr noundef %0) #0 {
  %2 = alloca i32, align 4
  %3 = alloca ptr, align 8
  store ptr %0, ptr %3, align 8, !tbaa !8
  %4 = load ptr, ptr %3, align 8, !tbaa !8
  %5 = icmp eq ptr %4, null
  br i1 %5, label %6, label %7

6:                                                ; preds = %1
  store i32 0, ptr %2, align 4
  br label %52

7:                                                ; preds = %1
  %8 = load ptr, ptr %3, align 8, !tbaa !8
  %9 = getelementptr inbounds nuw %struct._generic_SUNLinearSolver, ptr %8, i32 0, i32 1
  %10 = load ptr, ptr %9, align 8, !tbaa !28
  %11 = icmp ne ptr %10, null
  br i1 %11, label %12, label %28

12:                                               ; preds = %7
  %13 = load ptr, ptr %3, align 8, !tbaa !8
  %14 = getelementptr inbounds nuw %struct._generic_SUNLinearSolver, ptr %13, i32 0, i32 1
  %15 = load ptr, ptr %14, align 8, !tbaa !28
  %16 = getelementptr inbounds nuw %struct._generic_SUNLinearSolver_Ops, ptr %15, i32 0, i32 14
  %17 = load ptr, ptr %16, align 8, !tbaa !27
  %18 = icmp ne ptr %17, null
  br i1 %18, label %19, label %27

19:                                               ; preds = %12
  %20 = load ptr, ptr %3, align 8, !tbaa !8
  %21 = getelementptr inbounds nuw %struct._generic_SUNLinearSolver, ptr %20, i32 0, i32 1
  %22 = load ptr, ptr %21, align 8, !tbaa !28
  %23 = getelementptr inbounds nuw %struct._generic_SUNLinearSolver_Ops, ptr %22, i32 0, i32 14
  %24 = load ptr, ptr %23, align 8, !tbaa !27
  %25 = load ptr, ptr %3, align 8, !tbaa !8
  %26 = call i32 %24(ptr noundef %25)
  store i32 %26, ptr %2, align 4
  br label %52

27:                                               ; preds = %12
  br label %28

28:                                               ; preds = %27, %7
  %29 = load ptr, ptr %3, align 8, !tbaa !8
  %30 = getelementptr inbounds nuw %struct._generic_SUNLinearSolver, ptr %29, i32 0, i32 0
  %31 = load ptr, ptr %30, align 8, !tbaa !30
  %32 = icmp ne ptr %31, null
  br i1 %32, label %33, label %39

33:                                               ; preds = %28
  %34 = load ptr, ptr %3, align 8, !tbaa !8
  %35 = getelementptr inbounds nuw %struct._generic_SUNLinearSolver, ptr %34, i32 0, i32 0
  %36 = load ptr, ptr %35, align 8, !tbaa !30
  call void @free(ptr noundef %36) #4
  %37 = load ptr, ptr %3, align 8, !tbaa !8
  %38 = getelementptr inbounds nuw %struct._generic_SUNLinearSolver, ptr %37, i32 0, i32 0
  store ptr null, ptr %38, align 8, !tbaa !30
  br label %39

39:                                               ; preds = %33, %28
  %40 = load ptr, ptr %3, align 8, !tbaa !8
  %41 = getelementptr inbounds nuw %struct._generic_SUNLinearSolver, ptr %40, i32 0, i32 1
  %42 = load ptr, ptr %41, align 8, !tbaa !28
  %43 = icmp ne ptr %42, null
  br i1 %43, label %44, label %50

44:                                               ; preds = %39
  %45 = load ptr, ptr %3, align 8, !tbaa !8
  %46 = getelementptr inbounds nuw %struct._generic_SUNLinearSolver, ptr %45, i32 0, i32 1
  %47 = load ptr, ptr %46, align 8, !tbaa !28
  call void @free(ptr noundef %47) #4
  %48 = load ptr, ptr %3, align 8, !tbaa !8
  %49 = getelementptr inbounds nuw %struct._generic_SUNLinearSolver, ptr %48, i32 0, i32 1
  store ptr null, ptr %49, align 8, !tbaa !28
  br label %50

50:                                               ; preds = %44, %39
  %51 = load ptr, ptr %3, align 8, !tbaa !8
  call void @free(ptr noundef %51) #4
  store ptr null, ptr %3, align 8, !tbaa !8
  store i32 0, ptr %2, align 4
  br label %52

52:                                               ; preds = %50, %19, %6
  %53 = load i32, ptr %2, align 4
  ret i32 %53
}